#include <math.h>
#include <stdio.h>
#include <stdlib.h>
#include <string.h>

main()
{
	int i,n,x,k,m;
	scanf("%d",&n);
	int a[n];
	for(i=0;i<n;i++)
	a[i]=i+1;
	if(n<5)
	printf("empty");
	else if(n>=5)
	{
		for(i=2;i<n;i++)
		{	
		    for(x=2;x<=a[i];x++)
		     {
			if(a[i]%x==0)
			break;
			}
			k=x;
		    for(x=2;x<=a[i-2];x++)
		     {
			if(a[i-2]%x==0)
			break;
			}
			m=x;
		if(k==a[i]&&m==a[i-2])
		printf("%d %d\n",a[i-2],a[i]);
			}
		}
	}
